target datalayout = "e-m:e-p270:32:32-p271:32:32-p272:64:64-i64:64-i128:128-f80:128-n8:16:32:64-S128"
target triple = "x86_64-pc-linux-gnu"

@.str = private unnamed_addr constant [26 x i8] c"Role \22%s\22 does not exist.\00", align 1
@.str.1 = private unnamed_addr constant [36 x i8] c"User \22%s\22 has no password assigned.\00", align 1
@.str.2 = private unnamed_addr constant [35 x i8] c"User \22%s\22 has an expired password.\00", align 1

; Function Attrs: inlinehint nounwind uwtable
define internal i64 @DatumGetInt64(i64 noundef %0) #3 {
  %2 = alloca i64, align 8
  store i64 %0, ptr %2, align 8
  %3 = load i64, ptr %2, align 8
  ret i64 %3
}

; Function Attrs: inlinehint nounwind uwtable
define internal i64 @DatumGetTimestampTz(i64 noundef %0) #3 {
  %2 = alloca i64, align 8
  store i64 %0, ptr %2, align 8
  %3 = load i64, ptr %2, align 8
  %4 = call i64 @DatumGetInt64(i64 noundef %3)
  ret i64 %4
}

; Function Attrs: inlinehint nounwind uwtable
define internal ptr @DatumGetPointer(i64 noundef %0) #3 {
  %2 = alloca i64, align 8
  store i64 %0, ptr %2, align 8
  %3 = load i64, ptr %2, align 8
  %4 = inttoptr i64 %3 to ptr
  ret ptr %4
}

; Function Attrs: inlinehint nounwind uwtable
define internal i64 @PointerGetDatum(ptr noundef %0) #3 {
  %2 = alloca ptr, align 8
  store ptr %0, ptr %2, align 8
  %3 = load ptr, ptr %2, align 8
  %4 = ptrtoint ptr %3 to i64
  ret i64 %4
}

; Function Attrs: nounwind uwtable
define dso_local ptr @get_role_password(ptr noundef %0, ptr noundef %1) #0 {
  %3 = alloca ptr, align 8
  %4 = alloca ptr, align 8
  %5 = alloca ptr, align 8
  %6 = alloca i64, align 8
  %7 = alloca ptr, align 8
  %8 = alloca i64, align 8
  %9 = alloca i8, align 1
  %10 = alloca ptr, align 8
  %11 = alloca i32, align 4
  store ptr %0, ptr %4, align 8
  store ptr %1, ptr %5, align 8
  call void @llvm.lifetime.start.p0(i64 8, ptr %6) #6
  store i64 0, ptr %6, align 8
  call void @llvm.lifetime.start.p0(i64 8, ptr %7) #6
  call void @llvm.lifetime.start.p0(i64 8, ptr %8) #6
  call void @llvm.lifetime.start.p0(i64 1, ptr %9) #6
  call void @llvm.lifetime.start.p0(i64 8, ptr %10) #6
  %12 = load ptr, ptr %4, align 8
  %13 = call i64 @PointerGetDatum(ptr noundef %12)
  %14 = call ptr @SearchSysCache1(i32 noundef 10, i64 noundef %13)
  store ptr %14, ptr %7, align 8
  %15 = load ptr, ptr %7, align 8
  %16 = icmp ne ptr %15, null
  br i1 %16, label %21, label %17

17:                                               ; preds = %2
  %18 = load ptr, ptr %4, align 8
  %19 = call ptr (ptr, ...) @psprintf(ptr noundef @.str, ptr noundef %18)
  %20 = load ptr, ptr %5, align 8
  store ptr %19, ptr %20, align 8
  store ptr null, ptr %3, align 8
  store i32 1, ptr %11, align 4
  br label %56

21:                                               ; preds = %2
  %22 = load ptr, ptr %7, align 8
  %23 = call i64 @SysCacheGetAttr(i32 noundef 10, ptr noundef %22, i16 noundef signext 11, ptr noundef %9)
  store i64 %23, ptr %8, align 8
  %24 = load i8, ptr %9, align 1, !range !4, !noundef !5
  %25 = trunc i8 %24 to i1
  br i1 %25, label %26, label %31

26:                                               ; preds = %21
  %27 = load ptr, ptr %7, align 8
  call void @ReleaseSysCache(ptr noundef %27)
  %28 = load ptr, ptr %4, align 8
  %29 = call ptr (ptr, ...) @psprintf(ptr noundef @.str.1, ptr noundef %28)
  %30 = load ptr, ptr %5, align 8
  store ptr %29, ptr %30, align 8
  store ptr null, ptr %3, align 8
  store i32 1, ptr %11, align 4
  br label %56

31:                                               ; preds = %21
  %32 = load i64, ptr %8, align 8
  %33 = call ptr @DatumGetPointer(i64 noundef %32)
  %34 = call ptr @text_to_cstring(ptr noundef %33)
  store ptr %34, ptr %10, align 8
  %35 = load ptr, ptr %7, align 8
  %36 = call i64 @SysCacheGetAttr(i32 noundef 10, ptr noundef %35, i16 noundef signext 12, ptr noundef %9)
  store i64 %36, ptr %8, align 8
  %37 = load i8, ptr %9, align 1, !range !4, !noundef !5
  %38 = trunc i8 %37 to i1
  br i1 %38, label %42, label %39

39:                                               ; preds = %31
  %40 = load i64, ptr %8, align 8
  %41 = call i64 @DatumGetTimestampTz(i64 noundef %40)
  store i64 %41, ptr %6, align 8
  br label %42

42:                                               ; preds = %39, %31
  %43 = load ptr, ptr %7, align 8
  call void @ReleaseSysCache(ptr noundef %43)
  %44 = load i8, ptr %9, align 1, !range !4, !noundef !5
  %45 = trunc i8 %44 to i1
  br i1 %45, label %54, label %46

46:                                               ; preds = %42
  %47 = load i64, ptr %6, align 8
  %48 = call i64 @GetCurrentTimestamp()
  %49 = icmp slt i64 %47, %48
  br i1 %49, label %50, label %54

50:                                               ; preds = %46
  %51 = load ptr, ptr %4, align 8
  %52 = call ptr (ptr, ...) @psprintf(ptr noundef @.str.2, ptr noundef %51)
  %53 = load ptr, ptr %5, align 8
  store ptr %52, ptr %53, align 8
  store ptr null, ptr %3, align 8
  store i32 1, ptr %11, align 4
  br label %56

54:                                               ; preds = %46, %42
  %55 = load ptr, ptr %10, align 8
  store ptr %55, ptr %3, align 8
  store i32 1, ptr %11, align 4
  br label %56

56:                                               ; preds = %54, %50, %26, %17
  call void @llvm.lifetime.end.p0(i64 8, ptr %10) #6
  call void @llvm.lifetime.end.p0(i64 1, ptr %9) #6
  call void @llvm.lifetime.end.p0(i64 8, ptr %8) #6
  call void @llvm.lifetime.end.p0(i64 8, ptr %7) #6
  call void @llvm.lifetime.end.p0(i64 8, ptr %6) #6
  %57 = load ptr, ptr %3, align 8
  ret ptr %57
}