; Function Attrs: nounwind uwtable
define dso_local ptr @get_role_password(ptr noundef %0, ptr noundef writeonly captures(none) %1) local_unnamed_addr #0 {
  %3 = alloca i8, align 1
  call void @llvm.lifetime.start.p0(i64 1, ptr nonnull %3) #6
  %4 = ptrtoint ptr %0 to i64
  %5 = tail call ptr @SearchSysCache1(i32 noundef 10, i64 noundef %4) #6
  %.not = icmp eq ptr %5, null
  br i1 %.not, label %6, label %8

6:                                                ; preds = %2
  %7 = tail call ptr (ptr, ...) @psprintf(ptr noundef nonnull @.str, ptr noundef %0) #6
  br label %.sink.split

8:                                                ; preds = %2
  %9 = call i64 @SysCacheGetAttr(i32 noundef 10, ptr noundef nonnull %5, i16 noundef signext 11, ptr noundef nonnull %3) #6
  %10 = load i8, ptr %3, align 1, !range !4, !noundef !5
  %11 = trunc nuw i8 %10 to i1
  br i1 %11, label %12, label %14

12:                                               ; preds = %8
  call void @ReleaseSysCache(ptr noundef nonnull %5) #6
  %13 = call ptr (ptr, ...) @psprintf(ptr noundef nonnull @.str.1, ptr noundef %0) #6
  br label %.sink.split

14:                                               ; preds = %8
  %15 = inttoptr i64 %9 to ptr
  %16 = call ptr @text_to_cstring(ptr noundef %15) #6
  %17 = call i64 @SysCacheGetAttr(i32 noundef 10, ptr noundef nonnull %5, i16 noundef signext 12, ptr noundef nonnull %3) #6
  %18 = load i8, ptr %3, align 1, !range !4, !noundef !5
  call void @ReleaseSysCache(ptr noundef nonnull %5) #6
  %19 = load i8, ptr %3, align 1, !range !4, !noundef !5
  %20 = trunc nuw i8 %19 to i1
  br i1 %20, label %27, label %21

21:                                               ; preds = %14
  %22 = trunc nuw i8 %18 to i1
  %spec.select = select i1 %22, i64 0, i64 %17
  %23 = call i64 @GetCurrentTimestamp() #6
  %24 = icmp slt i64 %spec.select, %23
  br i1 %24, label %25, label %27

25:                                               ; preds = %21
  %26 = call ptr (ptr, ...) @psprintf(ptr noundef nonnull @.str.2, ptr noundef %0) #6
  br label %.sink.split

.sink.split:                                      ; preds = %6, %12, %25
  %.sink = phi ptr [ %26, %25 ], [ %13, %12 ], [ %7, %6 ]
  store ptr %.sink, ptr %1, align 8
  br label %27

27:                                               ; preds = %.sink.split, %14, %21
  %.0 = phi ptr [ %16, %21 ], [ %16, %14 ], [ null, %.sink.split ]
  call void @llvm.lifetime.end.p0(i64 1, ptr nonnull %3) #6
  ret ptr %.0
}